; Function Attrs: mustprogress uwtable
define noundef nonnull align 8 dereferenceable(104) ptr @_ZN2mu17ParserTokenReader16SaveBeforeReturnERKNS_11ParserTokenIdNSt7__cxx1112basic_stringIcSt11char_traitsIcESaIcEEEEE(ptr noundef nonnull align 8 dereferenceable(400) initializes((288, 292), (296, 304)) %0, ptr noundef nonnull align 8 dereferenceable(104) %1) local_unnamed_addr #11 align 2 {
  %3 = getelementptr inbounds nuw i8, ptr %0, i64 288
  %4 = load i32, ptr %1, align 8, !tbaa !29
  store i32 %4, ptr %3, align 8, !tbaa !29
  %5 = getelementptr inbounds nuw i8, ptr %1, i64 8
  %6 = load ptr, ptr %5, align 8, !tbaa !43
  %7 = getelementptr inbounds nuw i8, ptr %0, i64 296
  store ptr %6, ptr %7, align 8, !tbaa !43
  %8 = getelementptr inbounds nuw i8, ptr %1, i64 24
  %9 = getelementptr inbounds nuw i8, ptr %0, i64 312
  tail call void @_ZNSt7__cxx1112basic_stringIcSt11char_traitsIcESaIcEE9_M_assignERKS4_(ptr noundef nonnull align 8 dereferenceable(32) %9, ptr noundef nonnull align 8 dereferenceable(32) %8)
  %10 = getelementptr inbounds nuw i8, ptr %1, i64 16
  %11 = load i32, ptr %10, align 8, !tbaa !44
  %12 = getelementptr inbounds nuw i8, ptr %0, i64 304
  store i32 %11, ptr %12, align 8, !tbaa !44
  %13 = getelementptr inbounds nuw i8, ptr %1, i64 56
  %14 = getelementptr inbounds nuw i8, ptr %0, i64 344
  tail call void @_ZNSt7__cxx1112basic_stringIcSt11char_traitsIcESaIcEE9_M_assignERKS4_(ptr noundef nonnull align 8 dereferenceable(32) %14, ptr noundef nonnull align 8 dereferenceable(32) %13)
  %15 = getelementptr inbounds nuw i8, ptr %1, i64 4
  %16 = load i32, ptr %15, align 4, !tbaa !42
  %17 = getelementptr inbounds nuw i8, ptr %0, i64 292
  store i32 %16, ptr %17, align 4, !tbaa !42
  %18 = getelementptr inbounds nuw i8, ptr %1, i64 88
  %19 = load double, ptr %18, align 8, !tbaa !93
  %20 = getelementptr inbounds nuw i8, ptr %0, i64 376
  store double %19, ptr %20, align 8, !tbaa !93
  %21 = getelementptr inbounds nuw i8, ptr %1, i64 96
  %22 = load ptr, ptr %21, align 8, !tbaa !94
  %.not.i.i = icmp eq ptr %22, null
  br i1 %.not.i.i, label %25, label %23

23:                                               ; preds = %2
  %24 = tail call noundef ptr @_ZNK2mu14ParserCallback5CloneEv(ptr noundef nonnull align 8 dereferenceable(32) %22)
  br label %25

25:                                               ; preds = %23, %2
  %26 = phi ptr [ %24, %23 ], [ null, %2 ]
  %27 = getelementptr inbounds nuw i8, ptr %0, i64 384
  %28 = load ptr, ptr %27, align 8, !tbaa !94
  store ptr %26, ptr %27, align 8, !tbaa !94
  %.not.i.i.i.i = icmp eq ptr %28, null
  br i1 %.not.i.i.i.i, label %_ZN2mu11ParserTokenIdNSt7__cxx1112basic_stringIcSt11char_traitsIcESaIcEEEEaSERKS7_.exit, label %_ZNKSt14default_deleteIN2mu14ParserCallbackEEclEPS1_.exit.i.i.i.i

_ZNKSt14default_deleteIN2mu14ParserCallbackEEclEPS1_.exit.i.i.i.i: ; preds = %25
  tail call void @_ZN2mu14ParserCallbackD1Ev(ptr noundef nonnull align 8 dereferenceable(32) %28) #26
  tail call void @_ZdlPv(ptr noundef nonnull %28) #28
  br label %_ZN2mu11ParserTokenIdNSt7__cxx1112basic_stringIcSt11char_traitsIcESaIcEEEEaSERKS7_.exit

_ZN2mu11ParserTokenIdNSt7__cxx1112basic_stringIcSt11char_traitsIcESaIcEEEEaSERKS7_.exit: ; preds = %25, %_ZNKSt14default_deleteIN2mu14ParserCallbackEEclEPS1_.exit.i.i.i.i
  ret ptr %3
}